target datalayout = "e-m:e-p270:32:32-p271:32:32-p272:64:64-i64:64-i128:128-f80:128-n8:16:32:64-S128"
target triple = "x86_64-pc-linux-gnu"

%struct.Abc_Frame_t_ = type { ptr, ptr, ptr, ptr, ptr, ptr, ptr, ptr, ptr, ptr, i32, i32, i32, i32, i32, ptr, float, float, i32, i32, ptr, ptr, ptr, double, double, ptr, ptr, ptr, ptr, ptr, ptr, ptr, ptr, ptr, ptr, ptr, ptr, float, ptr, i32, ptr, ptr, ptr, ptr, ptr, i32, i32, i32, i32, i32, i32, ptr, ptr, ptr, ptr, ptr, ptr, i32, i32, ptr, ptr, ptr, ptr, ptr, ptr, ptr, ptr, ptr, ptr, ptr, ptr, ptr, ptr, ptr, ptr, ptr, ptr, ptr, ptr, ptr, ptr, ptr, ptr, ptr, ptr, ptr, ptr, ptr, ptr }

@.str.6 = private unnamed_addr constant [8 x i8] c"history\00", align 1
@stdout = external global ptr, align 8
@.str.65 = private unnamed_addr constant [2 x i8] c"h\00", align 1
@.str.71 = private unnamed_addr constant [34 x i8] c"\09-h    : print the command usage\0A\00", align 1
@.str.95 = private unnamed_addr constant [1 x i8] zeroinitializer, align 1
@.str.96 = private unnamed_addr constant [7 x i8] c"abcout\00", align 1
@.str.97 = private unnamed_addr constant [2 x i8] c"-\00", align 1
@.str.98 = private unnamed_addr constant [2 x i8] c"w\00", align 1
@.str.99 = private unnamed_addr constant [7 x i8] c"abcerr\00", align 1
@stderr = external global ptr, align 8
@.str.100 = private unnamed_addr constant [32 x i8] c"usage: set [-h] <name> <value>\0A\00", align 1
@.str.101 = private unnamed_addr constant [45 x i8] c"\09        sets the value of parameter <name>\0A\00", align 1

; Function Attrs: nounwind uwtable
define internal i32 @CmdCommandSetVariable(ptr noundef %0, i32 noundef %1, ptr noundef %2) #0 {
  %4 = alloca i32, align 4
  %5 = alloca ptr, align 8
  %6 = alloca i32, align 4
  %7 = alloca ptr, align 8
  %8 = alloca ptr, align 8
  %9 = alloca ptr, align 8
  %10 = alloca ptr, align 8
  %11 = alloca i32, align 4
  store ptr %0, ptr %5, align 8
  store i32 %1, ptr %6, align 4
  store ptr %2, ptr %7, align 8
  call void (...) @Extra_UtilGetoptReset()
  br label %12

12:                                               ; preds = %3
  %13 = load i32, ptr %6, align 4
  %14 = load ptr, ptr %7, align 8
  %15 = call i32 @Extra_UtilGetopt(i32 noundef %13, ptr noundef %14, ptr noundef @.str.65)
  store i32 %15, ptr %11, align 4
  %16 = icmp ne i32 %15, -1
  br i1 %16, label %17, label %21

17:                                               ; preds = %12
  %18 = load i32, ptr %11, align 4
  switch i32 %18, label %20 [
    i32 104, label %19
  ]

19:                                               ; preds = %17
  br label %190

20:                                               ; preds = %17
  br label %190

21:                                               ; preds = %12
  %22 = load i32, ptr %6, align 4
  %23 = icmp eq i32 %22, 0
  br i1 %23, label %27, label %24

24:                                               ; preds = %21
  %25 = load i32, ptr %6, align 4
  %26 = icmp sgt i32 %25, 3
  br i1 %26, label %27, label %28

27:                                               ; preds = %24, %21
  br label %190

28:                                               ; preds = %24
  %29 = load i32, ptr %6, align 4
  %30 = icmp eq i32 %29, 1
  br i1 %30, label %31, label %35

31:                                               ; preds = %28
  %32 = load ptr, ptr %5, align 8
  %33 = getelementptr inbounds %struct.Abc_Frame_t_, ptr %32, i32 0, i32 4
  %34 = load ptr, ptr %33, align 8
  call void @CmdPrintTable(ptr noundef %34, i32 noundef 0)
  store i32 0, ptr %4, align 4
  br label %203

35:                                               ; preds = %28
  %36 = load ptr, ptr %7, align 8
  %37 = getelementptr inbounds ptr, ptr %36, i64 1
  %38 = load ptr, ptr %37, align 8
  store ptr %38, ptr %10, align 8
  %39 = load ptr, ptr %5, align 8
  %40 = getelementptr inbounds %struct.Abc_Frame_t_, ptr %39, i32 0, i32 4
  %41 = load ptr, ptr %40, align 8
  %42 = call i32 @st__delete(ptr noundef %41, ptr noundef %10, ptr noundef %9)
  %43 = icmp ne i32 %42, 0
  br i1 %43, label %44, label %57

44:                                               ; preds = %35
  %45 = load ptr, ptr %10, align 8
  %46 = icmp ne ptr %45, null
  br i1 %46, label %47, label %49

47:                                               ; preds = %44
  %48 = load ptr, ptr %10, align 8
  call void @free(ptr noundef %48) #9
  store ptr null, ptr %10, align 8
  br label %50

49:                                               ; preds = %44
  br label %50

50:                                               ; preds = %49, %47
  %51 = load ptr, ptr %9, align 8
  %52 = icmp ne ptr %51, null
  br i1 %52, label %53, label %55

53:                                               ; preds = %50
  %54 = load ptr, ptr %9, align 8
  call void @free(ptr noundef %54) #9
  store ptr null, ptr %9, align 8
  br label %56

55:                                               ; preds = %50
  br label %56

56:                                               ; preds = %55, %53
  br label %57

57:                                               ; preds = %56, %35
  %58 = load i32, ptr %6, align 4
  %59 = icmp eq i32 %58, 2
  br i1 %59, label %60, label %62

60:                                               ; preds = %57
  %61 = call ptr @Extra_UtilStrsav(ptr noundef @.str.95)
  br label %67

62:                                               ; preds = %57
  %63 = load ptr, ptr %7, align 8
  %64 = getelementptr inbounds ptr, ptr %63, i64 2
  %65 = load ptr, ptr %64, align 8
  %66 = call ptr @Extra_UtilStrsav(ptr noundef %65)
  br label %67

67:                                               ; preds = %62, %60
  %68 = phi ptr [ %61, %60 ], [ %66, %62 ]
  store ptr %68, ptr %8, align 8
  %69 = load ptr, ptr %5, align 8
  %70 = getelementptr inbounds %struct.Abc_Frame_t_, ptr %69, i32 0, i32 4
  %71 = load ptr, ptr %70, align 8
  %72 = load ptr, ptr %7, align 8
  %73 = getelementptr inbounds ptr, ptr %72, i64 1
  %74 = load ptr, ptr %73, align 8
  %75 = call ptr @Extra_UtilStrsav(ptr noundef %74)
  %76 = load ptr, ptr %8, align 8
  %77 = call i32 @st__insert(ptr noundef %71, ptr noundef %75, ptr noundef %76)
  %78 = load ptr, ptr %7, align 8
  %79 = getelementptr inbounds ptr, ptr %78, i64 1
  %80 = load ptr, ptr %79, align 8
  %81 = call i32 @strcmp(ptr noundef %80, ptr noundef @.str.96) #10
  %82 = icmp eq i32 %81, 0
  br i1 %82, label %83, label %114

83:                                               ; preds = %67
  %84 = load ptr, ptr %5, align 8
  %85 = getelementptr inbounds %struct.Abc_Frame_t_, ptr %84, i32 0, i32 20
  %86 = load ptr, ptr %85, align 8
  %87 = load ptr, ptr @stdout, align 8
  %88 = icmp ne ptr %86, %87
  br i1 %88, label %89, label %94

89:                                               ; preds = %83
  %90 = load ptr, ptr %5, align 8
  %91 = getelementptr inbounds %struct.Abc_Frame_t_, ptr %90, i32 0, i32 20
  %92 = load ptr, ptr %91, align 8
  %93 = call i32 @fclose(ptr noundef %92)
  br label %94

94:                                               ; preds = %89, %83
  %95 = load ptr, ptr %8, align 8
  %96 = call i32 @strcmp(ptr noundef %95, ptr noundef @.str.95) #10
  %97 = icmp eq i32 %96, 0
  br i1 %97, label %98, label %99

98:                                               ; preds = %94
  store ptr @.str.97, ptr %8, align 8
  br label %99

99:                                               ; preds = %98, %94
  %100 = load ptr, ptr %5, align 8
  %101 = load ptr, ptr %8, align 8
  %102 = call ptr @CmdFileOpen(ptr noundef %100, ptr noundef %101, ptr noundef @.str.98, ptr noundef null, i32 noundef 0)
  %103 = load ptr, ptr %5, align 8
  %104 = getelementptr inbounds %struct.Abc_Frame_t_, ptr %103, i32 0, i32 20
  store ptr %102, ptr %104, align 8
  %105 = load ptr, ptr %5, align 8
  %106 = getelementptr inbounds %struct.Abc_Frame_t_, ptr %105, i32 0, i32 20
  %107 = load ptr, ptr %106, align 8
  %108 = icmp eq ptr %107, null
  br i1 %108, label %109, label %113

109:                                              ; preds = %99
  %110 = load ptr, ptr @stdout, align 8
  %111 = load ptr, ptr %5, align 8
  %112 = getelementptr inbounds %struct.Abc_Frame_t_, ptr %111, i32 0, i32 20
  store ptr %110, ptr %112, align 8
  br label %113

113:                                              ; preds = %109, %99
  br label %114

114:                                              ; preds = %113, %67
  %115 = load ptr, ptr %7, align 8
  %116 = getelementptr inbounds ptr, ptr %115, i64 1
  %117 = load ptr, ptr %116, align 8
  %118 = call i32 @strcmp(ptr noundef %117, ptr noundef @.str.99) #10
  %119 = icmp eq i32 %118, 0
  br i1 %119, label %120, label %151

120:                                              ; preds = %114
  %121 = load ptr, ptr %5, align 8
  %122 = getelementptr inbounds %struct.Abc_Frame_t_, ptr %121, i32 0, i32 21
  %123 = load ptr, ptr %122, align 8
  %124 = load ptr, ptr @stderr, align 8
  %125 = icmp ne ptr %123, %124
  br i1 %125, label %126, label %131

126:                                              ; preds = %120
  %127 = load ptr, ptr %5, align 8
  %128 = getelementptr inbounds %struct.Abc_Frame_t_, ptr %127, i32 0, i32 21
  %129 = load ptr, ptr %128, align 8
  %130 = call i32 @fclose(ptr noundef %129)
  br label %131

131:                                              ; preds = %126, %120
  %132 = load ptr, ptr %8, align 8
  %133 = call i32 @strcmp(ptr noundef %132, ptr noundef @.str.95) #10
  %134 = icmp eq i32 %133, 0
  br i1 %134, label %135, label %136

135:                                              ; preds = %131
  store ptr @.str.97, ptr %8, align 8
  br label %136

136:                                              ; preds = %135, %131
  %137 = load ptr, ptr %5, align 8
  %138 = load ptr, ptr %8, align 8
  %139 = call ptr @CmdFileOpen(ptr noundef %137, ptr noundef %138, ptr noundef @.str.98, ptr noundef null, i32 noundef 0)
  %140 = load ptr, ptr %5, align 8
  %141 = getelementptr inbounds %struct.Abc_Frame_t_, ptr %140, i32 0, i32 21
  store ptr %139, ptr %141, align 8
  %142 = load ptr, ptr %5, align 8
  %143 = getelementptr inbounds %struct.Abc_Frame_t_, ptr %142, i32 0, i32 21
  %144 = load ptr, ptr %143, align 8
  %145 = icmp eq ptr %144, null
  br i1 %145, label %146, label %150

146:                                              ; preds = %136
  %147 = load ptr, ptr @stderr, align 8
  %148 = load ptr, ptr %5, align 8
  %149 = getelementptr inbounds %struct.Abc_Frame_t_, ptr %148, i32 0, i32 21
  store ptr %147, ptr %149, align 8
  br label %150

150:                                              ; preds = %146, %136
  br label %151

151:                                              ; preds = %150, %114
  %152 = load ptr, ptr %7, align 8
  %153 = getelementptr inbounds ptr, ptr %152, i64 1
  %154 = load ptr, ptr %153, align 8
  %155 = call i32 @strcmp(ptr noundef %154, ptr noundef @.str.6) #10
  %156 = icmp eq i32 %155, 0
  br i1 %156, label %157, label %189

157:                                              ; preds = %151
  %158 = load ptr, ptr %5, align 8
  %159 = getelementptr inbounds %struct.Abc_Frame_t_, ptr %158, i32 0, i32 22
  %160 = load ptr, ptr %159, align 8
  %161 = icmp ne ptr %160, null
  br i1 %161, label %162, label %167

162:                                              ; preds = %157
  %163 = load ptr, ptr %5, align 8
  %164 = getelementptr inbounds %struct.Abc_Frame_t_, ptr %163, i32 0, i32 22
  %165 = load ptr, ptr %164, align 8
  %166 = call i32 @fclose(ptr noundef %165)
  br label %167

167:                                              ; preds = %162, %157
  %168 = load ptr, ptr %8, align 8
  %169 = call i32 @strcmp(ptr noundef %168, ptr noundef @.str.95) #10
  %170 = icmp eq i32 %169, 0
  br i1 %170, label %171, label %174

171:                                              ; preds = %167
  %172 = load ptr, ptr %5, align 8
  %173 = getelementptr inbounds %struct.Abc_Frame_t_, ptr %172, i32 0, i32 22
  store ptr null, ptr %173, align 8
  br label %188

174:                                              ; preds = %167
  %175 = load ptr, ptr %5, align 8
  %176 = load ptr, ptr %8, align 8
  %177 = call ptr @CmdFileOpen(ptr noundef %175, ptr noundef %176, ptr noundef @.str.98, ptr noundef null, i32 noundef 0)
  %178 = load ptr, ptr %5, align 8
  %179 = getelementptr inbounds %struct.Abc_Frame_t_, ptr %178, i32 0, i32 22
  store ptr %177, ptr %179, align 8
  %180 = load ptr, ptr %5, align 8
  %181 = getelementptr inbounds %struct.Abc_Frame_t_, ptr %180, i32 0, i32 22
  %182 = load ptr, ptr %181, align 8
  %183 = icmp eq ptr %182, null
  br i1 %183, label %184, label %187

184:                                              ; preds = %174
  %185 = load ptr, ptr %5, align 8
  %186 = getelementptr inbounds %struct.Abc_Frame_t_, ptr %185, i32 0, i32 22
  store ptr null, ptr %186, align 8
  br label %187

187:                                              ; preds = %184, %174
  br label %188

188:                                              ; preds = %187, %171
  br label %189

189:                                              ; preds = %188, %151
  store i32 0, ptr %4, align 4
  br label %203

190:                                              ; preds = %27, %20, %19
  %191 = load ptr, ptr %5, align 8
  %192 = getelementptr inbounds %struct.Abc_Frame_t_, ptr %191, i32 0, i32 21
  %193 = load ptr, ptr %192, align 8
  %194 = call i32 (ptr, ptr, ...) @fprintf(ptr noundef %193, ptr noundef @.str.100) #9
  %195 = load ptr, ptr %5, align 8
  %196 = getelementptr inbounds %struct.Abc_Frame_t_, ptr %195, i32 0, i32 21
  %197 = load ptr, ptr %196, align 8
  %198 = call i32 (ptr, ptr, ...) @fprintf(ptr noundef %197, ptr noundef @.str.101) #9
  %199 = load ptr, ptr %5, align 8
  %200 = getelementptr inbounds %struct.Abc_Frame_t_, ptr %199, i32 0, i32 21
  %201 = load ptr, ptr %200, align 8
  %202 = call i32 (ptr, ptr, ...) @fprintf(ptr noundef %201, ptr noundef @.str.71) #9
  store i32 1, ptr %4, align 4
  br label %203

203:                                              ; preds = %190, %189, %31
  %204 = load i32, ptr %4, align 4
  ret i32 %204
}