; Function Attrs: nounwind uwtable
define internal range(i32 0, 2) i32 @CmdCommandSetVariable(ptr noundef %0, i32 noundef %1, ptr noundef %2) #0 {
  %4 = alloca ptr, align 8
  %5 = alloca ptr, align 8
  tail call void (...) @Extra_UtilGetoptReset() #17
  %6 = tail call i32 @Extra_UtilGetopt(i32 noundef %1, ptr noundef %2, ptr noundef nonnull @.str.65) #17
  %.not = icmp eq i32 %6, -1
  br i1 %.not, label %7, label %83

7:                                                ; preds = %3
  %8 = icmp eq i32 %1, 0
  %9 = icmp sgt i32 %1, 3
  %or.cond = or i1 %8, %9
  br i1 %or.cond, label %83, label %10

10:                                               ; preds = %7
  %11 = icmp eq i32 %1, 1
  br i1 %11, label %12, label %15

12:                                               ; preds = %10
  %13 = getelementptr inbounds nuw i8, ptr %0, i64 32
  %14 = load ptr, ptr %13, align 8
  tail call void @CmdPrintTable(ptr noundef %14, i32 noundef 0) #17
  br label %91

15:                                               ; preds = %10
  %16 = getelementptr inbounds nuw i8, ptr %2, i64 8
  %17 = load ptr, ptr %16, align 8
  store ptr %17, ptr %5, align 8
  %18 = getelementptr inbounds nuw i8, ptr %0, i64 32
  %19 = load ptr, ptr %18, align 8
  %20 = call i32 @st__delete(ptr noundef %19, ptr noundef nonnull %5, ptr noundef nonnull %4) #17
  %.not53 = icmp eq i32 %20, 0
  br i1 %.not53, label %27, label %21

21:                                               ; preds = %15
  %22 = load ptr, ptr %5, align 8
  %.not54 = icmp eq ptr %22, null
  br i1 %.not54, label %24, label %23

23:                                               ; preds = %21
  call void @free(ptr noundef nonnull %22) #17
  store ptr null, ptr %5, align 8
  br label %24

24:                                               ; preds = %21, %23
  %25 = load ptr, ptr %4, align 8
  %.not55 = icmp eq ptr %25, null
  br i1 %.not55, label %27, label %26

26:                                               ; preds = %24
  call void @free(ptr noundef nonnull %25) #17
  store ptr null, ptr %4, align 8
  br label %27

27:                                               ; preds = %26, %24, %15
  %28 = icmp eq i32 %1, 2
  br i1 %28, label %32, label %29

29:                                               ; preds = %27
  %30 = getelementptr inbounds nuw i8, ptr %2, i64 16
  %31 = load ptr, ptr %30, align 8
  br label %32

32:                                               ; preds = %27, %29
  %.sink = phi ptr [ %31, %29 ], [ @.str.95, %27 ]
  %33 = call ptr @Extra_UtilStrsav(ptr noundef %.sink) #17
  %34 = load ptr, ptr %18, align 8
  %35 = load ptr, ptr %16, align 8
  %36 = call ptr @Extra_UtilStrsav(ptr noundef %35) #17
  %37 = call i32 @st__insert(ptr noundef %34, ptr noundef %36, ptr noundef %33) #17
  %38 = load ptr, ptr %16, align 8
  %39 = call i32 @strcmp(ptr noundef nonnull dereferenceable(1) %38, ptr noundef nonnull dereferenceable(7) @.str.96) #19
  %40 = icmp eq i32 %39, 0
  br i1 %40, label %41, label %53

41:                                               ; preds = %32
  %42 = getelementptr inbounds nuw i8, ptr %0, i64 128
  %43 = load ptr, ptr %42, align 8
  %44 = load ptr, ptr @stdout, align 8
  %.not56 = icmp eq ptr %43, %44
  br i1 %.not56, label %47, label %45

45:                                               ; preds = %41
  %46 = call i32 @fclose(ptr noundef %43)
  br label %47

47:                                               ; preds = %45, %41
  %strcmpload = load i8, ptr %33, align 1
  %48 = icmp eq i8 %strcmpload, 0
  %spec.store.select = select i1 %48, ptr @.str.97, ptr %33
  %49 = call ptr @CmdFileOpen(ptr noundef nonnull %0, ptr noundef nonnull %spec.store.select, ptr noundef nonnull @.str.98, ptr noundef null, i32 noundef 0) #17
  store ptr %49, ptr %42, align 8
  %50 = icmp eq ptr %49, null
  br i1 %50, label %51, label %53

51:                                               ; preds = %47
  %52 = load ptr, ptr @stdout, align 8
  store ptr %52, ptr %42, align 8
  br label %53

53:                                               ; preds = %47, %51, %32
  %.046 = phi ptr [ %spec.store.select, %51 ], [ %spec.store.select, %47 ], [ %33, %32 ]
  %54 = load ptr, ptr %16, align 8
  %55 = call i32 @strcmp(ptr noundef nonnull dereferenceable(1) %54, ptr noundef nonnull dereferenceable(7) @.str.99) #19
  %56 = icmp eq i32 %55, 0
  br i1 %56, label %57, label %69

57:                                               ; preds = %53
  %58 = getelementptr inbounds nuw i8, ptr %0, i64 136
  %59 = load ptr, ptr %58, align 8
  %60 = load ptr, ptr @stderr, align 8
  %.not57 = icmp eq ptr %59, %60
  br i1 %.not57, label %63, label %61

61:                                               ; preds = %57
  %62 = call i32 @fclose(ptr noundef %59)
  br label %63

63:                                               ; preds = %61, %57
  %strcmpload58 = load i8, ptr %.046, align 1
  %64 = icmp eq i8 %strcmpload58, 0
  %spec.store.select2 = select i1 %64, ptr @.str.97, ptr %.046
  %65 = call ptr @CmdFileOpen(ptr noundef nonnull %0, ptr noundef nonnull %spec.store.select2, ptr noundef nonnull @.str.98, ptr noundef null, i32 noundef 0) #17
  store ptr %65, ptr %58, align 8
  %66 = icmp eq ptr %65, null
  br i1 %66, label %67, label %69

67:                                               ; preds = %63
  %68 = load ptr, ptr @stderr, align 8
  store ptr %68, ptr %58, align 8
  br label %69

69:                                               ; preds = %63, %67, %53
  %.1 = phi ptr [ %spec.store.select2, %67 ], [ %spec.store.select2, %63 ], [ %.046, %53 ]
  %70 = load ptr, ptr %16, align 8
  %71 = call i32 @strcmp(ptr noundef nonnull dereferenceable(1) %70, ptr noundef nonnull dereferenceable(8) @.str.6) #19
  %72 = icmp eq i32 %71, 0
  br i1 %72, label %73, label %91

73:                                               ; preds = %69
  %74 = getelementptr inbounds nuw i8, ptr %0, i64 144
  %75 = load ptr, ptr %74, align 8
  %.not59 = icmp eq ptr %75, null
  br i1 %.not59, label %78, label %76

76:                                               ; preds = %73
  %77 = call i32 @fclose(ptr noundef nonnull %75)
  br label %78

78:                                               ; preds = %76, %73
  %strcmpload60 = load i8, ptr %.1, align 1
  %79 = icmp eq i8 %strcmpload60, 0
  br i1 %79, label %80, label %81

80:                                               ; preds = %78
  store ptr null, ptr %74, align 8
  br label %91

81:                                               ; preds = %78
  %82 = call ptr @CmdFileOpen(ptr noundef nonnull %0, ptr noundef nonnull %.1, ptr noundef nonnull @.str.98, ptr noundef null, i32 noundef 0) #17
  store ptr %82, ptr %74, align 8
  br label %91

83:                                               ; preds = %7, %3
  %84 = getelementptr inbounds nuw i8, ptr %0, i64 136
  %85 = load ptr, ptr %84, align 8
  %86 = tail call i64 @fwrite(ptr nonnull @.str.100, i64 31, i64 1, ptr %85)
  %87 = load ptr, ptr %84, align 8
  %88 = tail call i64 @fwrite(ptr nonnull @.str.101, i64 44, i64 1, ptr %87)
  %89 = load ptr, ptr %84, align 8
  %90 = tail call i64 @fwrite(ptr nonnull @.str.71, i64 33, i64 1, ptr %89)
  br label %91

91:                                               ; preds = %81, %69, %80, %83, %12
  %.0 = phi i32 [ 1, %83 ], [ 0, %12 ], [ 0, %80 ], [ 0, %81 ], [ 0, %69 ]
  ret i32 %.0
}